target datalayout = "e-m:e-p270:32:32-p271:32:32-p272:64:64-i64:64-i128:128-f80:128-n8:16:32:64-S128"
target triple = "x86_64-unknown-linux-gnu"

%struct.regcache_ops = type { ptr, i32, ptr, ptr, ptr, ptr, ptr, ptr, ptr }
%struct.reg_default = type { i32, i32 }

@.str = private unnamed_addr constant [5 x i8] c"flat\00", align 1
@regcache_flat_ops = dso_local local_unnamed_addr global %struct.regcache_ops { ptr @.str, i32 2, ptr @regcache_flat_init, ptr @regcache_flat_exit, ptr null, ptr @regcache_flat_read, ptr @regcache_flat_write, ptr null, ptr null }, align 8

; Function Attrs: fn_ret_thunk_extern nounwind null_pointer_is_valid
define internal noundef i32 @regcache_flat_init(ptr noundef %0) #0 align 16 {
  %2 = icmp eq ptr %0, null
  br i1 %2, label %39, label %3

3:                                                ; preds = %1
  %4 = getelementptr inbounds i8, ptr %0, i64 512
  %5 = load i32, ptr %4, align 8
  %6 = icmp slt i32 %5, 0
  br i1 %6, label %39, label %7

7:                                                ; preds = %3
  %8 = getelementptr inbounds i8, ptr %0, i64 336
  %9 = load i32, ptr %8, align 8
  %10 = icmp eq i32 %9, 0
  br i1 %10, label %39, label %11

11:                                               ; preds = %7
  %12 = lshr i32 %9, %5
  %13 = add i32 %12, 1
  %14 = zext i32 %13 to i64
  %15 = shl nuw nsw i64 %14, 2
  %16 = tail call noalias align 8 ptr @__kmalloc(i64 noundef %15, i32 noundef 3520) #5
  %17 = getelementptr inbounds i8, ptr %0, i64 568
  store ptr %16, ptr %17, align 8
  %18 = icmp eq ptr %16, null
  br i1 %18, label %39, label %19

19:                                               ; preds = %11
  %20 = getelementptr inbounds i8, ptr %0, i64 540
  %21 = load i32, ptr %20, align 4
  %22 = icmp eq i32 %21, 0
  br i1 %22, label %39, label %23

23:                                               ; preds = %19
  %24 = getelementptr inbounds i8, ptr %0, i64 552
  %25 = load ptr, ptr %24, align 8
  %26 = load i32, ptr %4, align 8
  br label %27

27:                                               ; preds = %27, %23
  %28 = phi i32 [ 0, %23 ], [ %37, %27 ]
  %29 = sext i32 %28 to i64
  %30 = getelementptr %struct.reg_default, ptr %25, i64 %29
  %31 = load i32, ptr %30, align 4
  %32 = lshr i32 %31, %26
  %33 = getelementptr %struct.reg_default, ptr %25, i64 %29, i32 1
  %34 = load i32, ptr %33, align 4
  %35 = zext i32 %32 to i64
  %36 = getelementptr i32, ptr %16, i64 %35
  store i32 %34, ptr %36, align 4
  %37 = add nuw i32 %28, 1
  %38 = icmp eq i32 %37, %21
  br i1 %38, label %39, label %27, !llvm.loop !5

39:                                               ; preds = %27, %19, %11, %7, %3, %1
  %40 = phi i32 [ -22, %7 ], [ -22, %3 ], [ -22, %1 ], [ -12, %11 ], [ 0, %19 ], [ 0, %27 ]
  ret i32 %40
}

; Function Attrs: fn_ret_thunk_extern nounwind null_pointer_is_valid
define internal noundef i32 @regcache_flat_exit(ptr nocapture noundef %0) #0 align 16 {
  %2 = getelementptr inbounds i8, ptr %0, i64 568
  %3 = load ptr, ptr %2, align 8
  tail call void @kfree(ptr noundef %3) #6
  store ptr null, ptr %2, align 8
  ret i32 0
}

; Function Attrs: fn_ret_thunk_extern mustprogress nofree norecurse nosync nounwind null_pointer_is_valid willreturn memory(read, argmem: readwrite, inaccessiblemem: none)
define internal noundef i32 @regcache_flat_read(ptr nocapture noundef readonly %0, i32 noundef %1, ptr nocapture noundef writeonly %2) #1 align 16 {
  %4 = getelementptr inbounds i8, ptr %0, i64 568
  %5 = load ptr, ptr %4, align 8
  %6 = getelementptr inbounds i8, ptr %0, i64 512
  %7 = load i32, ptr %6, align 8
  %8 = lshr i32 %1, %7
  %9 = zext i32 %8 to i64
  %10 = getelementptr i32, ptr %5, i64 %9
  %11 = load i32, ptr %10, align 4
  store i32 %11, ptr %2, align 4
  ret i32 0
}

; Function Attrs: fn_ret_thunk_extern mustprogress nofree norecurse nosync nounwind null_pointer_is_valid willreturn memory(write, argmem: readwrite, inaccessiblemem: none)
define internal noundef i32 @regcache_flat_write(ptr nocapture noundef readonly %0, i32 noundef %1, i32 noundef %2) #2 align 16 {
  %4 = getelementptr inbounds i8, ptr %0, i64 568
  %5 = load ptr, ptr %4, align 8
  %6 = getelementptr inbounds i8, ptr %0, i64 512
  %7 = load i32, ptr %6, align 8
  %8 = lshr i32 %1, %7
  %9 = zext i32 %8 to i64
  %10 = getelementptr i32, ptr %5, i64 %9
  store i32 %2, ptr %10, align 4
  ret i32 0
}

; Function Attrs: null_pointer_is_valid allocsize(0)
declare dso_local noalias ptr @__kmalloc(i64 noundef, i32 noundef) local_unnamed_addr #3

; Function Attrs: null_pointer_is_valid
declare dso_local void @kfree(ptr noundef) local_unnamed_addr #4


!llvm.module.flags = !{!0, !1, !2, !3, !4}

!0 = !{i32 1, !"wchar_size", i32 2}
!1 = !{i32 8, !"cf-protection-branch", i32 1}
!2 = !{i32 4, !"function_return_thunk_extern", i32 1}
!3 = !{i32 4, !"indirect_branch_cs_prefix", i32 1}
!4 = !{i32 4, !"SkipRaxSetup", i32 1}
!5 = distinct !{!5, !6, !7}
!6 = !{!"llvm.loop.mustprogress"}
!7 = !{!"llvm.loop.unroll.disable"}
